target datalayout = "e-m:e-p270:32:32-p271:32:32-p272:64:64-i64:64-i128:128-f80:128-n8:16:32:64-S128"
target triple = "x86_64-pc-linux-gnu"

%struct.AVProbeData = type { ptr, ptr, i32, ptr }

; Function Attrs: nounwind uwtable
define internal i32 @probe_bfstm(ptr noundef %0) #0 {
  %2 = alloca i32, align 4
  %3 = alloca ptr, align 8
  store ptr %0, ptr %3, align 8, !tbaa !4
  %4 = load ptr, ptr %3, align 8, !tbaa !4
  %5 = getelementptr inbounds nuw %struct.AVProbeData, ptr %4, i32 0, i32 1
  %6 = load ptr, ptr %5, align 8, !tbaa !9
  %7 = load i32, ptr %6, align 1, !tbaa !13
  %8 = icmp eq i32 %7, 1297371974
  br i1 %8, label %15, label %9

9:                                                ; preds = %1
  %10 = load ptr, ptr %3, align 8, !tbaa !4
  %11 = getelementptr inbounds nuw %struct.AVProbeData, ptr %10, i32 0, i32 1
  %12 = load ptr, ptr %11, align 8, !tbaa !9
  %13 = load i32, ptr %12, align 1, !tbaa !13
  %14 = icmp eq i32 %13, 1297371971
  br i1 %14, label %15, label %32

15:                                               ; preds = %9, %1
  %16 = load ptr, ptr %3, align 8, !tbaa !4
  %17 = getelementptr inbounds nuw %struct.AVProbeData, ptr %16, i32 0, i32 1
  %18 = load ptr, ptr %17, align 8, !tbaa !9
  %19 = getelementptr inbounds i8, ptr %18, i64 4
  %20 = load i16, ptr %19, align 1, !tbaa !13
  %21 = zext i16 %20 to i32
  %22 = icmp eq i32 %21, 65534
  br i1 %22, label %31, label %23

23:                                               ; preds = %15
  %24 = load ptr, ptr %3, align 8, !tbaa !4
  %25 = getelementptr inbounds nuw %struct.AVProbeData, ptr %24, i32 0, i32 1
  %26 = load ptr, ptr %25, align 8, !tbaa !9
  %27 = getelementptr inbounds i8, ptr %26, i64 4
  %28 = load i16, ptr %27, align 1, !tbaa !13
  %29 = zext i16 %28 to i32
  %30 = icmp eq i32 %29, 65279
  br i1 %30, label %31, label %32

31:                                               ; preds = %23, %15
  store i32 66, ptr %2, align 4
  br label %33

32:                                               ; preds = %23, %9
  store i32 0, ptr %2, align 4
  br label %33

33:                                               ; preds = %32, %31
  %34 = load i32, ptr %2, align 4
  ret i32 %34
}