; Function Attrs: mustprogress nofree norecurse nosync nounwind willreturn memory(read, inaccessiblemem: none) uwtable
define internal range(i32 0, 67) i32 @probe_bfstm(ptr noundef readonly captures(none) %0) #0 {
  %2 = getelementptr inbounds nuw i8, ptr %0, i64 8
  %3 = load ptr, ptr %2, align 8, !tbaa !4
  %4 = load i32, ptr %3, align 1, !tbaa !11
  switch i32 %4, label %9 [
    i32 1297371974, label %5
    i32 1297371971, label %5
  ]

5:                                                ; preds = %1, %1
  %6 = getelementptr inbounds nuw i8, ptr %3, i64 4
  %7 = load i16, ptr %6, align 1, !tbaa !11
  %switch.selectcmp.case1 = icmp eq i16 %7, -2
  %switch.selectcmp.case2 = icmp eq i16 %7, -257
  %switch.selectcmp = or i1 %switch.selectcmp.case1, %switch.selectcmp.case2
  %8 = select i1 %switch.selectcmp, i32 66, i32 0
  br label %9

9:                                                ; preds = %1, %5
  %.0 = phi i32 [ %8, %5 ], [ 0, %1 ]
  ret i32 %.0
}